target datalayout = "e-m:e-p270:32:32-p271:32:32-p272:64:64-i64:64-i128:128-f80:128-n8:16:32:64-S128"
target triple = "x86_64-pc-linux-gnu"

%class.anon.135 = type { i8 }
%struct.UserData = type { i8, i8, i8, i8, i8, i8, i8, i8, i8, i8 }
%struct.stat = type { i64, i64, i64, i32, i32, i32, i32, i64, i64, i64, i64, %struct.timespec, %struct.timespec, %struct.timespec, [3 x i64] }
%struct.timespec = type { i64, i64 }

; Function Attrs: inlinehint mustprogress nounwind uwtable
define internal noundef i32 @"_ZZN12_GLOBAL__N_124networking_file_api_Test8TestBodyEvENK3$_6clEP6pj_ctxPKcPv"(ptr noundef nonnull align 1 dereferenceable(1) %0, ptr noundef %1, ptr noundef %2, ptr noundef %3) #10 align 2 {
  %5 = alloca ptr, align 8
  %6 = alloca ptr, align 8
  %7 = alloca ptr, align 8
  %8 = alloca ptr, align 8
  %9 = alloca %struct.stat, align 8
  store ptr %0, ptr %5, align 8, !tbaa !24
  store ptr %1, ptr %6, align 8, !tbaa !109
  store ptr %2, ptr %7, align 8, !tbaa !13
  store ptr %3, ptr %8, align 8, !tbaa !24
  %10 = load ptr, ptr %8, align 8, !tbaa !24
  %11 = getelementptr inbounds nuw %struct.UserData, ptr %10, i32 0, i32 6
  store i8 1, ptr %11, align 1, !tbaa !627
  call void @llvm.lifetime.start.p0(i64 144, ptr %9) #3
  %12 = load ptr, ptr %7, align 8, !tbaa !13
  %13 = call i32 @stat(ptr noundef %12, ptr noundef %9) #3
  %14 = icmp eq i32 %13, 0
  %15 = zext i1 %14 to i32
  call void @llvm.lifetime.end.p0(i64 144, ptr %9) #3
  ret i32 %15
}

; Function Attrs: inlinehint mustprogress uwtable
define internal noundef i32 @"_ZZN12_GLOBAL__N_124networking_file_api_Test8TestBodyEvEN3$_68__invokeEP6pj_ctxPKcPv"(ptr noundef %0, ptr noundef %1, ptr noundef %2) #8 align 2 {
  %4 = alloca ptr, align 8
  %5 = alloca ptr, align 8
  %6 = alloca ptr, align 8
  %7 = alloca %class.anon.135, align 1
  store ptr %0, ptr %4, align 8, !tbaa !109
  store ptr %1, ptr %5, align 8, !tbaa !13
  store ptr %2, ptr %6, align 8, !tbaa !24
  %8 = load ptr, ptr %4, align 8, !tbaa !109
  %9 = load ptr, ptr %5, align 8, !tbaa !13
  %10 = load ptr, ptr %6, align 8, !tbaa !24
  %11 = call noundef i32 @"_ZZN12_GLOBAL__N_124networking_file_api_Test8TestBodyEvENK3$_6clEP6pj_ctxPKcPv"(ptr noundef nonnull align 1 dereferenceable(1) %7, ptr noundef %8, ptr noundef %9, ptr noundef %10)
  ret i32 %11
}