; Function Attrs: inlinehint mustprogress nofree nounwind uwtable
define internal noundef range(i32 0, 2) i32 @"_ZZN12_GLOBAL__N_124networking_file_api_Test8TestBodyEvEN3$_68__invokeEP6pj_ctxPKcPv"(ptr readnone captures(none) %0, ptr noundef readonly captures(none) %1, ptr noundef writeonly captures(none) initializes((6, 7)) %2) #22 align 2 {
  %4 = alloca %struct.stat, align 8
  %5 = getelementptr inbounds nuw i8, ptr %2, i64 6
  store i8 1, ptr %5, align 1, !tbaa !732
  call void @llvm.lifetime.start.p0(i64 144, ptr nonnull %4) #29
  %6 = call i32 @stat(ptr noundef readonly %1, ptr noundef nonnull %4) #29
  %7 = icmp eq i32 %6, 0
  %8 = zext i1 %7 to i32
  call void @llvm.lifetime.end.p0(i64 144, ptr nonnull %4) #29
  ret i32 %8
}